; Function Attrs: mustprogress uwtable
define dso_local void @_Z7read_toRSt6vectorIfSaIfEEmP8_IO_FILE(ptr noundef nonnull align 8 dereferenceable(24) %0, i64 noundef %1, ptr noundef captures(none) %2) local_unnamed_addr #7 personality ptr @__gxx_personality_v0 {
  %4 = getelementptr inbounds nuw i8, ptr %0, i64 8
  %5 = load ptr, ptr %4, align 8, !tbaa !51
  %6 = load ptr, ptr %0, align 8, !tbaa !55
  %7 = ptrtoint ptr %5 to i64
  %8 = ptrtoint ptr %6 to i64
  %9 = sub i64 %7, %8
  %10 = ashr exact i64 %9, 2
  %11 = icmp ugt i64 %1, %10
  br i1 %11, label %12, label %14

12:                                               ; preds = %3
  %13 = sub nuw i64 %1, %10
  tail call void @_ZNSt6vectorIfSaIfEE17_M_default_appendEm(ptr noundef nonnull align 8 dereferenceable(24) %0, i64 noundef %13)
  %.pre = load ptr, ptr %0, align 8, !tbaa !55
  br label %_ZNSt6vectorIfSaIfEE6resizeEm.exit

14:                                               ; preds = %3
  %15 = icmp ult i64 %1, %10
  br i1 %15, label %16, label %_ZNSt6vectorIfSaIfEE6resizeEm.exit

16:                                               ; preds = %14
  %17 = getelementptr inbounds nuw float, ptr %6, i64 %1
  %.not.i.i = icmp eq ptr %5, %17
  br i1 %.not.i.i, label %_ZNSt6vectorIfSaIfEE6resizeEm.exit, label %18

18:                                               ; preds = %16
  store ptr %17, ptr %4, align 8, !tbaa !51
  br label %_ZNSt6vectorIfSaIfEE6resizeEm.exit

_ZNSt6vectorIfSaIfEE6resizeEm.exit:               ; preds = %12, %14, %16, %18
  %19 = phi ptr [ %.pre, %12 ], [ %6, %14 ], [ %6, %16 ], [ %6, %18 ]
  %20 = tail call i64 @fread(ptr noundef nonnull %19, i64 noundef 4, i64 noundef %1, ptr noundef %2)
  %.not = icmp eq i64 %20, %1
  br i1 %.not, label %22, label %21

21:                                               ; preds = %_ZNSt6vectorIfSaIfEE6resizeEm.exit
  tail call void @perror(ptr noundef nonnull @.str.109) #31
  tail call void @exit(i32 noundef 1) #30
  unreachable

22:                                               ; preds = %_ZNSt6vectorIfSaIfEE6resizeEm.exit
  ret void
}